; Function Attrs: mustprogress nofree nounwind willreturn memory(read) uwtable
define dso_local noundef i32 @_ZNK4base9SampleMap10TotalCountEv(ptr noundef nonnull readonly align 8 dereferenceable(88) %this) unnamed_addr #6 align 2 {
entry:
  %_M_left.i.i = getelementptr inbounds i8, ptr %this, i64 64
  %0 = load ptr, ptr %_M_left.i.i, align 8
  %add.ptr.i.i = getelementptr inbounds i8, ptr %this, i64 48
  %cmp.i.not5 = icmp eq ptr %0, %add.ptr.i.i
  br i1 %cmp.i.not5, label %for.end, label %for.body

for.body:                                         ; preds = %entry, %for.body
  %count.07 = phi i32 [ %add, %for.body ], [ 0, %entry ]
  %__begin1.sroa.0.06 = phi ptr [ %call.i, %for.body ], [ %0, %entry ]
  %second = getelementptr inbounds i8, ptr %__begin1.sroa.0.06, i64 36
  %1 = load i32, ptr %second, align 4
  %add = add nsw i32 %1, %count.07
  %call.i = tail call noundef ptr @_ZSt18_Rb_tree_incrementPKSt18_Rb_tree_node_base(ptr noundef %__begin1.sroa.0.06) #16
  %cmp.i.not = icmp eq ptr %call.i, %add.ptr.i.i
  br i1 %cmp.i.not, label %for.end, label %for.body

for.end:                                          ; preds = %for.body, %entry
  %count.0.lcssa = phi i32 [ 0, %entry ], [ %add, %for.body ]
  ret i32 %count.0.lcssa
}